; Function Attrs: nounwind uwtable
define hidden void @zif_posix_getpgid(ptr noundef %0, ptr nocapture noundef writeonly %1) #0 {
  %3 = alloca i64, align 8
  %4 = getelementptr inbounds i8, ptr %0, i64 44
  %5 = load i32, ptr %4, align 4
  %cond = icmp eq i32 %5, 1
  br i1 %cond, label %6, label %.thread81

6:                                                ; preds = %2
  %7 = getelementptr inbounds i8, ptr %0, i64 80
  %8 = getelementptr inbounds i8, ptr %0, i64 88
  %9 = load i8, ptr %8, align 8
  %10 = icmp eq i8 %9, 4
  br i1 %10, label %.thread71, label %12

.thread71:                                        ; preds = %6
  %11 = load i64, ptr %7, align 8
  store i64 %11, ptr %3, align 8
  br label %.thread89

12:                                               ; preds = %6
  %13 = call zeroext i1 @zend_parse_arg_long_slow(ptr noundef nonnull %7, ptr noundef nonnull %3, i32 noundef 1) #11
  %.fr = freeze i1 %13
  br i1 %.fr, label %..thread89_crit_edge, label %14

..thread89_crit_edge:                             ; preds = %12
  %.pre = load i64, ptr %3, align 8
  br label %.thread89

.thread81:                                        ; preds = %2
  tail call void @zend_wrong_parameters_count_error(i32 noundef 1, i32 noundef 1) #11
  br label %14

14:                                               ; preds = %12, %.thread81
  %.05888 = phi i32 [ 1, %.thread81 ], [ 9, %12 ]
  %.05987 = phi i32 [ 0, %.thread81 ], [ 1, %12 ]
  %.06186 = phi ptr [ null, %.thread81 ], [ %7, %12 ]
  call void @zend_wrong_parameter_error(i32 noundef %.05888, i32 noundef %.05987, ptr noundef null, i32 noundef 0, ptr noundef %.06186) #11
  br label %26

.thread89:                                        ; preds = %..thread89_crit_edge, %.thread71
  %15 = phi i64 [ %.pre, %..thread89_crit_edge ], [ %11, %.thread71 ]
  %16 = trunc i64 %15 to i32
  %17 = call i32 @getpgid(i32 noundef %16) #11
  %18 = sext i32 %17 to i64
  store i64 %18, ptr %3, align 8
  %19 = icmp slt i32 %17, 0
  br i1 %19, label %20, label %24

20:                                               ; preds = %.thread89
  %21 = tail call ptr @__errno_location() #12
  %22 = load i32, ptr %21, align 4
  store i32 %22, ptr @posix_globals, align 4
  %23 = getelementptr inbounds i8, ptr %1, i64 8
  store i32 2, ptr %23, align 8
  br label %26

24:                                               ; preds = %.thread89
  store i64 %18, ptr %1, align 8
  %25 = getelementptr inbounds i8, ptr %1, i64 8
  store i32 4, ptr %25, align 8
  br label %26

26:                                               ; preds = %24, %20, %14
  ret void
}